target datalayout = "e-m:e-p270:32:32-p271:32:32-p272:64:64-i64:64-i128:128-f80:128-n8:16:32:64-S128"
target triple = "x86_64-pc-linux-gnu"

%"struct.Imf_3_4::TiledOutputFile::Data" = type <{ %"class.Imf_3_4::Header", i32, i8, [3 x i8], %"class.Imf_3_4::TileDescription", %"class.Imf_3_4::FrameBuffer", i64, i32, i32, i32, i32, i32, i32, i32, [4 x i8], ptr, ptr, %"class.Imf_3_4::TileOffsets", i32, [4 x i8], %"class.std::vector.11", i64, %"class.std::vector.16", i64, i64, %"class.std::map.21", %"struct.Imf_3_4::(anonymous namespace)::TileCoord", i32, [4 x i8] }>
%"class.Imf_3_4::Header" = type <{ %"class.std::map", i8, [7 x i8] }>
%"class.std::map" = type { %"class.std::_Rb_tree" }
%"class.std::_Rb_tree" = type { %"struct.std::_Rb_tree<Imf_3_4::Name, std::pair<const Imf_3_4::Name, Imf_3_4::Attribute *>, std::_Select1st<std::pair<const Imf_3_4::Name, Imf_3_4::Attribute *>>, std::less<Imf_3_4::Name>>::_Rb_tree_impl" }
%"struct.std::_Rb_tree<Imf_3_4::Name, std::pair<const Imf_3_4::Name, Imf_3_4::Attribute *>, std::_Select1st<std::pair<const Imf_3_4::Name, Imf_3_4::Attribute *>>, std::less<Imf_3_4::Name>>::_Rb_tree_impl" = type { [8 x i8], %"struct.std::_Rb_tree_header" }
%"struct.std::_Rb_tree_header" = type { %"struct.std::_Rb_tree_node_base", i64 }
%"struct.std::_Rb_tree_node_base" = type { i32, ptr, ptr, ptr }
%"class.Imf_3_4::TileDescription" = type { i32, i32, i32, i32 }
%"class.Imf_3_4::FrameBuffer" = type { %"class.std::map.3" }
%"class.std::map.3" = type { %"class.std::_Rb_tree.4" }
%"class.std::_Rb_tree.4" = type { %"struct.std::_Rb_tree<Imf_3_4::Name, std::pair<const Imf_3_4::Name, Imf_3_4::Slice>, std::_Select1st<std::pair<const Imf_3_4::Name, Imf_3_4::Slice>>, std::less<Imf_3_4::Name>>::_Rb_tree_impl" }
%"struct.std::_Rb_tree<Imf_3_4::Name, std::pair<const Imf_3_4::Name, Imf_3_4::Slice>, std::_Select1st<std::pair<const Imf_3_4::Name, Imf_3_4::Slice>>, std::less<Imf_3_4::Name>>::_Rb_tree_impl" = type { [8 x i8], %"struct.std::_Rb_tree_header" }
%"class.Imf_3_4::TileOffsets" = type { i32, i32, i32, %"class.std::vector" }
%"class.std::vector" = type { %"struct.std::_Vector_base" }
%"struct.std::_Vector_base" = type { %"struct.std::_Vector_base<std::vector<std::vector<unsigned long>>, std::allocator<std::vector<std::vector<unsigned long>>>>::_Vector_impl" }
%"struct.std::_Vector_base<std::vector<std::vector<unsigned long>>, std::allocator<std::vector<std::vector<unsigned long>>>>::_Vector_impl" = type { %"struct.std::_Vector_base<std::vector<std::vector<unsigned long>>, std::allocator<std::vector<std::vector<unsigned long>>>>::_Vector_impl_data" }
%"struct.std::_Vector_base<std::vector<std::vector<unsigned long>>, std::allocator<std::vector<std::vector<unsigned long>>>>::_Vector_impl_data" = type { ptr, ptr, ptr }
%"class.std::vector.11" = type { %"struct.std::_Vector_base.12" }
%"struct.std::_Vector_base.12" = type { %"struct.std::_Vector_base<Imf_3_4::(anonymous namespace)::TOutSliceInfo, std::allocator<Imf_3_4::(anonymous namespace)::TOutSliceInfo>>::_Vector_impl" }
%"struct.std::_Vector_base<Imf_3_4::(anonymous namespace)::TOutSliceInfo, std::allocator<Imf_3_4::(anonymous namespace)::TOutSliceInfo>>::_Vector_impl" = type { %"struct.std::_Vector_base<Imf_3_4::(anonymous namespace)::TOutSliceInfo, std::allocator<Imf_3_4::(anonymous namespace)::TOutSliceInfo>>::_Vector_impl_data" }
%"struct.std::_Vector_base<Imf_3_4::(anonymous namespace)::TOutSliceInfo, std::allocator<Imf_3_4::(anonymous namespace)::TOutSliceInfo>>::_Vector_impl_data" = type { ptr, ptr, ptr }
%"class.std::vector.16" = type { %"struct.std::_Vector_base.17" }
%"struct.std::_Vector_base.17" = type { %"struct.std::_Vector_base<Imf_3_4::(anonymous namespace)::TileBuffer *, std::allocator<Imf_3_4::(anonymous namespace)::TileBuffer *>>::_Vector_impl" }
%"struct.std::_Vector_base<Imf_3_4::(anonymous namespace)::TileBuffer *, std::allocator<Imf_3_4::(anonymous namespace)::TileBuffer *>>::_Vector_impl" = type { %"struct.std::_Vector_base<Imf_3_4::(anonymous namespace)::TileBuffer *, std::allocator<Imf_3_4::(anonymous namespace)::TileBuffer *>>::_Vector_impl_data" }
%"struct.std::_Vector_base<Imf_3_4::(anonymous namespace)::TileBuffer *, std::allocator<Imf_3_4::(anonymous namespace)::TileBuffer *>>::_Vector_impl_data" = type { ptr, ptr, ptr }
%"class.std::map.21" = type { %"class.std::_Rb_tree.22" }
%"class.std::_Rb_tree.22" = type { %"struct.std::_Rb_tree<Imf_3_4::(anonymous namespace)::TileCoord, std::pair<const Imf_3_4::(anonymous namespace)::TileCoord, Imf_3_4::(anonymous namespace)::BufferedTile *>, std::_Select1st<std::pair<const Imf_3_4::(anonymous namespace)::TileCoord, Imf_3_4::(anonymous namespace)::BufferedTile *>>, std::less<Imf_3_4::(anonymous namespace)::TileCoord>>::_Rb_tree_impl" }
%"struct.std::_Rb_tree<Imf_3_4::(anonymous namespace)::TileCoord, std::pair<const Imf_3_4::(anonymous namespace)::TileCoord, Imf_3_4::(anonymous namespace)::BufferedTile *>, std::_Select1st<std::pair<const Imf_3_4::(anonymous namespace)::TileCoord, Imf_3_4::(anonymous namespace)::BufferedTile *>>, std::less<Imf_3_4::(anonymous namespace)::TileCoord>>::_Rb_tree_impl" = type { [8 x i8], %"struct.std::_Rb_tree_header" }
%"struct.Imf_3_4::(anonymous namespace)::TileCoord" = type { i32, i32, i32, i32 }
%"class.Imf_3_4::TiledOutputFile" = type <{ %"class.Imf_3_4::GenericOutputFile", ptr, ptr, i8, [7 x i8] }>
%"class.Imf_3_4::GenericOutputFile" = type { ptr }
%"struct.Imf_3_4::OutputStreamMutex" = type { %"class.std::mutex", ptr, i64 }
%"class.std::mutex" = type { %"class.std::__mutex_base" }
%"class.std::__mutex_base" = type { %union.pthread_mutex_t }
%union.pthread_mutex_t = type { %struct.__pthread_mutex_s }
%struct.__pthread_mutex_s = type { i32, i32, i32, i32, i32, i16, i16, %struct.__pthread_internal_list }
%struct.__pthread_internal_list = type { ptr, ptr }
%"class.std::lock_guard" = type { ptr }

@_ZTVN7Imf_3_415TiledOutputFileE = unnamed_addr constant { [4 x ptr] } { [4 x ptr] [ptr null, ptr @_ZTIN7Imf_3_415TiledOutputFileE, ptr @_ZN7Imf_3_415TiledOutputFileD1Ev, ptr @_ZN7Imf_3_415TiledOutputFileD0Ev] }, align 8
@_ZN7Imf_3_415TiledOutputFile4DataD1Ev = hidden unnamed_addr alias void (ptr), ptr @_ZN7Imf_3_415TiledOutputFile4DataD2Ev

; Function Attrs: inlinehint mustprogress nounwind uwtable
define internal noundef i32 @_ZL18__gthread_active_pv() #7 {
  ret i32 1
}

; Function Attrs: inlinehint mustprogress nounwind uwtable
define internal noundef i32 @_ZL22__gthread_mutex_unlockP15pthread_mutex_t(ptr noundef %0) #7 {
  %2 = alloca i32, align 4
  %3 = alloca ptr, align 8
  store ptr %0, ptr %3, align 8, !tbaa !448
  %4 = call noundef i32 @_ZL18__gthread_active_pv()
  %5 = icmp ne i32 %4, 0
  br i1 %5, label %6, label %9

6:                                                ; preds = %1
  %7 = load ptr, ptr %3, align 8, !tbaa !448
  %8 = call i32 @pthread_mutex_unlock(ptr noundef %7) #3
  store i32 %8, ptr %2, align 4
  br label %10

9:                                                ; preds = %1
  store i32 0, ptr %2, align 4
  br label %10

10:                                               ; preds = %9, %6
  %11 = load i32, ptr %2, align 4
  ret i32 %11
}

; Function Attrs: inlinehint mustprogress uwtable
define internal noundef i32 @_ZL20__gthread_mutex_lockP15pthread_mutex_t(ptr noundef %0) #13 {
  %2 = alloca i32, align 4
  %3 = alloca ptr, align 8
  store ptr %0, ptr %3, align 8, !tbaa !448
  %4 = call noundef i32 @_ZL18__gthread_active_pv()
  %5 = icmp ne i32 %4, 0
  br i1 %5, label %6, label %9

6:                                                ; preds = %1
  %7 = load ptr, ptr %3, align 8, !tbaa !448
  %8 = call i32 @pthread_mutex_lock(ptr noundef %7) #3
  store i32 %8, ptr %2, align 4
  br label %10

9:                                                ; preds = %1
  store i32 0, ptr %2, align 4
  br label %10

10:                                               ; preds = %9, %6
  %11 = load i32, ptr %2, align 4
  ret i32 %11
}

; Function Attrs: mustprogress uwtable
define linkonce_odr hidden void @_ZNSt5mutex6unlockEv(ptr noundef nonnull align 8 dereferenceable(40) %0) #6 comdat align 2 {
  %2 = alloca ptr, align 8
  store ptr %0, ptr %2, align 8, !tbaa !201
  %3 = load ptr, ptr %2, align 8
  %4 = getelementptr inbounds nuw %"class.std::__mutex_base", ptr %3, i32 0, i32 0
  %5 = call noundef i32 @_ZL22__gthread_mutex_unlockP15pthread_mutex_t(ptr noundef %4)
  ret void
}

; Function Attrs: mustprogress uwtable
define linkonce_odr hidden void @_ZNSt5mutex4lockEv(ptr noundef nonnull align 8 dereferenceable(40) %0) #6 comdat align 2 {
  %2 = alloca ptr, align 8
  %3 = alloca i32, align 4
  store ptr %0, ptr %2, align 8, !tbaa !201
  %4 = load ptr, ptr %2, align 8
  call void @llvm.lifetime.start.p0(i64 4, ptr %3) #3
  %5 = getelementptr inbounds nuw %"class.std::__mutex_base", ptr %4, i32 0, i32 0
  %6 = call noundef i32 @_ZL20__gthread_mutex_lockP15pthread_mutex_t(ptr noundef %5)
  store i32 %6, ptr %3, align 4, !tbaa !14
  %7 = load i32, ptr %3, align 4, !tbaa !14
  %8 = icmp ne i32 %7, 0
  br i1 %8, label %9, label %11

9:                                                ; preds = %1
  %10 = load i32, ptr %3, align 4, !tbaa !14
  call void @_ZSt20__throw_system_errori(i32 noundef %10) #20
  unreachable

11:                                               ; preds = %1
  call void @llvm.lifetime.end.p0(i64 4, ptr %3) #3
  ret void
}

; Function Attrs: mustprogress nounwind uwtable
define linkonce_odr hidden void @_ZNSt10lock_guardISt5mutexED2Ev(ptr noundef nonnull align 8 dereferenceable(8) %0) unnamed_addr #5 comdat align 2 personality ptr @__gxx_personality_v0 {
  %2 = alloca ptr, align 8
  store ptr %0, ptr %2, align 8, !tbaa !199
  %3 = load ptr, ptr %2, align 8
  %4 = getelementptr inbounds nuw %"class.std::lock_guard", ptr %3, i32 0, i32 0
  %5 = load ptr, ptr %4, align 8, !tbaa !203
  invoke void @_ZNSt5mutex6unlockEv(ptr noundef nonnull align 8 dereferenceable(40) %5)
          to label %6 unwind label %7

6:                                                ; preds = %1
  ret void

7:                                                ; preds = %1
  %8 = landingpad { ptr, i32 }
          catch ptr null
  %9 = extractvalue { ptr, i32 } %8, 0
  call void @__clang_call_terminate(ptr %9) #21
  unreachable
}

; Function Attrs: mustprogress uwtable
define linkonce_odr hidden void @_ZNSt10lock_guardISt5mutexEC2ERS0_(ptr noundef nonnull align 8 dereferenceable(8) %0, ptr noundef nonnull align 8 dereferenceable(40) %1) unnamed_addr #6 comdat align 2 {
  %3 = alloca ptr, align 8
  %4 = alloca ptr, align 8
  store ptr %0, ptr %3, align 8, !tbaa !199
  store ptr %1, ptr %4, align 8, !tbaa !201
  %5 = load ptr, ptr %3, align 8
  %6 = getelementptr inbounds nuw %"class.std::lock_guard", ptr %5, i32 0, i32 0
  %7 = load ptr, ptr %4, align 8, !tbaa !201
  store ptr %7, ptr %6, align 8, !tbaa !201
  %8 = getelementptr inbounds nuw %"class.std::lock_guard", ptr %5, i32 0, i32 0
  %9 = load ptr, ptr %8, align 8, !tbaa !203
  call void @_ZNSt5mutex4lockEv(ptr noundef nonnull align 8 dereferenceable(40) %9)
  ret void
}

; Function Attrs: mustprogress nounwind uwtable
define void @_ZN7Imf_3_415TiledOutputFileD2Ev(ptr noundef nonnull align 8 dereferenceable(25) %0) unnamed_addr #5 align 2 personality ptr @__gxx_personality_v0 {
  %2 = alloca ptr, align 8
  %3 = alloca %"class.std::lock_guard", align 8
  %4 = alloca i64, align 8
  %5 = alloca ptr, align 8
  %6 = alloca i32, align 4
  store ptr %0, ptr %2, align 8, !tbaa !128
  %7 = load ptr, ptr %2, align 8
  store ptr getelementptr inbounds inrange(-16, 16) ({ [4 x ptr] }, ptr @_ZTVN7Imf_3_415TiledOutputFileE, i32 0, i32 0, i32 2), ptr %7, align 8, !tbaa !126
  %8 = getelementptr inbounds nuw %"class.Imf_3_4::TiledOutputFile", ptr %7, i32 0, i32 1
  %9 = load ptr, ptr %8, align 8, !tbaa !132
  %10 = icmp ne ptr %9, null
  br i1 %10, label %11, label %106

11:                                               ; preds = %1
  call void @llvm.lifetime.start.p0(i64 8, ptr %3) #3
  %12 = getelementptr inbounds nuw %"class.Imf_3_4::TiledOutputFile", ptr %7, i32 0, i32 2
  %13 = load ptr, ptr %12, align 8, !tbaa !136
  invoke void @_ZNSt10lock_guardISt5mutexEC2ERS0_(ptr noundef nonnull align 8 dereferenceable(8) %3, ptr noundef nonnull align 8 dereferenceable(40) %13)
          to label %14 unwind label %107

14:                                               ; preds = %11
  call void @llvm.lifetime.start.p0(i64 8, ptr %4) #3
  %15 = getelementptr inbounds nuw %"class.Imf_3_4::TiledOutputFile", ptr %7, i32 0, i32 2
  %16 = load ptr, ptr %15, align 8, !tbaa !136
  %17 = getelementptr inbounds nuw %"struct.Imf_3_4::OutputStreamMutex", ptr %16, i32 0, i32 1
  %18 = load ptr, ptr %17, align 8, !tbaa !138
  %19 = load ptr, ptr %18, align 8, !tbaa !126
  %20 = getelementptr inbounds ptr, ptr %19, i64 3
  %21 = load ptr, ptr %20, align 8
  %22 = invoke noundef i64 %21(ptr noundef nonnull align 8 dereferenceable(40) %18)
          to label %23 unwind label %107

23:                                               ; preds = %14
  store i64 %22, ptr %4, align 8, !tbaa !96
  %24 = getelementptr inbounds nuw %"class.Imf_3_4::TiledOutputFile", ptr %7, i32 0, i32 1
  %25 = load ptr, ptr %24, align 8, !tbaa !132
  %26 = getelementptr inbounds nuw %"struct.Imf_3_4::TiledOutputFile::Data", ptr %25, i32 0, i32 24
  %27 = load i64, ptr %26, align 8, !tbaa !65
  %28 = icmp ugt i64 %27, 0
  br i1 %28, label %29, label %69

29:                                               ; preds = %23
  %30 = getelementptr inbounds nuw %"class.Imf_3_4::TiledOutputFile", ptr %7, i32 0, i32 2
  %31 = load ptr, ptr %30, align 8, !tbaa !136
  %32 = getelementptr inbounds nuw %"struct.Imf_3_4::OutputStreamMutex", ptr %31, i32 0, i32 1
  %33 = load ptr, ptr %32, align 8, !tbaa !138
  %34 = getelementptr inbounds nuw %"class.Imf_3_4::TiledOutputFile", ptr %7, i32 0, i32 1
  %35 = load ptr, ptr %34, align 8, !tbaa !132
  %36 = getelementptr inbounds nuw %"struct.Imf_3_4::TiledOutputFile::Data", ptr %35, i32 0, i32 24
  %37 = load i64, ptr %36, align 8, !tbaa !65
  %38 = load ptr, ptr %33, align 8, !tbaa !126
  %39 = getelementptr inbounds ptr, ptr %38, i64 4
  %40 = load ptr, ptr %39, align 8
  invoke void %40(ptr noundef nonnull align 8 dereferenceable(40) %33, i64 noundef %37)
          to label %41 unwind label %60

41:                                               ; preds = %29
  %42 = getelementptr inbounds nuw %"class.Imf_3_4::TiledOutputFile", ptr %7, i32 0, i32 1
  %43 = load ptr, ptr %42, align 8, !tbaa !132
  %44 = getelementptr inbounds nuw %"struct.Imf_3_4::TiledOutputFile::Data", ptr %43, i32 0, i32 17
  %45 = getelementptr inbounds nuw %"class.Imf_3_4::TiledOutputFile", ptr %7, i32 0, i32 2
  %46 = load ptr, ptr %45, align 8, !tbaa !136
  %47 = getelementptr inbounds nuw %"struct.Imf_3_4::OutputStreamMutex", ptr %46, i32 0, i32 1
  %48 = load ptr, ptr %47, align 8, !tbaa !138
  %49 = invoke noundef i64 @_ZNK7Imf_3_411TileOffsets7writeToERNS_7OStreamE(ptr noundef nonnull align 8 dereferenceable(40) %44, ptr noundef nonnull align 8 dereferenceable(40) %48)
          to label %50 unwind label %60

50:                                               ; preds = %41
  %51 = getelementptr inbounds nuw %"class.Imf_3_4::TiledOutputFile", ptr %7, i32 0, i32 2
  %52 = load ptr, ptr %51, align 8, !tbaa !136
  %53 = getelementptr inbounds nuw %"struct.Imf_3_4::OutputStreamMutex", ptr %52, i32 0, i32 1
  %54 = load ptr, ptr %53, align 8, !tbaa !138
  %55 = load i64, ptr %4, align 8, !tbaa !96
  %56 = load ptr, ptr %54, align 8, !tbaa !126
  %57 = getelementptr inbounds ptr, ptr %56, i64 4
  %58 = load ptr, ptr %57, align 8
  invoke void %58(ptr noundef nonnull align 8 dereferenceable(40) %54, i64 noundef %55)
          to label %59 unwind label %60

59:                                               ; preds = %50
  br label %68

60:                                               ; preds = %50, %41, %29
  %61 = landingpad { ptr, i32 }
          catch ptr null
  %62 = extractvalue { ptr, i32 } %61, 0
  store ptr %62, ptr %5, align 8
  %63 = extractvalue { ptr, i32 } %61, 1
  store i32 %63, ptr %6, align 4
  br label %64

64:                                               ; preds = %60
  %65 = load ptr, ptr %5, align 8
  %66 = call ptr @__cxa_begin_catch(ptr %65) #3
  invoke void @__cxa_end_catch()
          to label %67 unwind label %107

67:                                               ; preds = %64
  br label %68

68:                                               ; preds = %67, %59
  br label %69

69:                                               ; preds = %68, %23
  call void @llvm.lifetime.end.p0(i64 8, ptr %4) #3
  call void @_ZNSt10lock_guardISt5mutexED2Ev(ptr noundef nonnull align 8 dereferenceable(8) %3) #3
  call void @llvm.lifetime.end.p0(i64 8, ptr %3) #3
  %70 = getelementptr inbounds nuw %"class.Imf_3_4::TiledOutputFile", ptr %7, i32 0, i32 3
  %71 = load i8, ptr %70, align 8, !tbaa !137, !range !186, !noundef !187
  %72 = trunc i8 %71 to i1
  br i1 %72, label %73, label %88

73:                                               ; preds = %69
  %74 = getelementptr inbounds nuw %"class.Imf_3_4::TiledOutputFile", ptr %7, i32 0, i32 2
  %75 = load ptr, ptr %74, align 8, !tbaa !136
  %76 = icmp ne ptr %75, null
  br i1 %76, label %77, label %88

77:                                               ; preds = %73
  %78 = getelementptr inbounds nuw %"class.Imf_3_4::TiledOutputFile", ptr %7, i32 0, i32 2
  %79 = load ptr, ptr %78, align 8, !tbaa !136
  %80 = getelementptr inbounds nuw %"struct.Imf_3_4::OutputStreamMutex", ptr %79, i32 0, i32 1
  %81 = load ptr, ptr %80, align 8, !tbaa !138
  %82 = icmp eq ptr %81, null
  br i1 %82, label %87, label %83

83:                                               ; preds = %77
  %84 = load ptr, ptr %81, align 8, !tbaa !126
  %85 = getelementptr inbounds ptr, ptr %84, i64 1
  %86 = load ptr, ptr %85, align 8
  call void %86(ptr noundef nonnull align 8 dereferenceable(40) %81) #3
  br label %87

87:                                               ; preds = %83, %77
  br label %88

88:                                               ; preds = %87, %73, %69
  %89 = getelementptr inbounds nuw %"class.Imf_3_4::TiledOutputFile", ptr %7, i32 0, i32 1
  %90 = load ptr, ptr %89, align 8, !tbaa !132
  %91 = getelementptr inbounds nuw %"struct.Imf_3_4::TiledOutputFile::Data", ptr %90, i32 0, i32 27
  %92 = load i32, ptr %91, align 8, !tbaa !66
  %93 = icmp eq i32 %92, -1
  br i1 %93, label %94, label %100

94:                                               ; preds = %88
  %95 = getelementptr inbounds nuw %"class.Imf_3_4::TiledOutputFile", ptr %7, i32 0, i32 2
  %96 = load ptr, ptr %95, align 8, !tbaa !136
  %97 = icmp eq ptr %96, null
  br i1 %97, label %99, label %98

98:                                               ; preds = %94
  call void @_ZdlPvm(ptr noundef %96, i64 noundef 56) #22
  br label %99

99:                                               ; preds = %98, %94
  br label %100

100:                                              ; preds = %99, %88
  %101 = getelementptr inbounds nuw %"class.Imf_3_4::TiledOutputFile", ptr %7, i32 0, i32 1
  %102 = load ptr, ptr %101, align 8, !tbaa !132
  %103 = icmp eq ptr %102, null
  br i1 %103, label %105, label %104

104:                                              ; preds = %100
  call void @_ZN7Imf_3_415TiledOutputFile4DataD1Ev(ptr noundef nonnull align 8 dereferenceable(372) %102) #3
  call void @_ZdlPvm(ptr noundef %102, i64 noundef 376) #22
  br label %105

105:                                              ; preds = %104, %100
  br label %106

106:                                              ; preds = %105, %1
  call void @_ZN7Imf_3_417GenericOutputFileD2Ev(ptr noundef nonnull align 8 dereferenceable(8) %7) #3
  ret void

107:                                              ; preds = %64, %14, %11
  %108 = landingpad { ptr, i32 }
          catch ptr null
  %109 = extractvalue { ptr, i32 } %108, 0
  call void @__clang_call_terminate(ptr %109) #21
  unreachable
}