; Function Attrs: mustprogress nounwind uwtable
define void @_ZN7Imf_3_415TiledOutputFileD2Ev(ptr noundef nonnull align 8 dereferenceable(25) initializes((0, 8)) %0) unnamed_addr #4 align 2 personality ptr @__gxx_personality_v0 {
  store ptr getelementptr inbounds nuw inrange(-16, 16) (i8, ptr @_ZTVN7Imf_3_415TiledOutputFileE, i64 16), ptr %0, align 8, !tbaa !105
  %2 = getelementptr inbounds nuw i8, ptr %0, i64 8
  %3 = load ptr, ptr %2, align 8, !tbaa !112
  %.not = icmp eq ptr %3, null
  br i1 %.not, label %71, label %4

4:                                                ; preds = %1
  %5 = getelementptr inbounds nuw i8, ptr %0, i64 16
  %6 = load ptr, ptr %5, align 8, !tbaa !117
  %7 = tail call noundef i32 @pthread_mutex_lock(ptr noundef nonnull align 8 dereferenceable(40) %6) #25
  %.not.i.i = icmp eq i32 %7, 0
  br i1 %.not.i.i, label %_ZNSt10lock_guardISt5mutexEC2ERS0_.exit, label %8

8:                                                ; preds = %4
  invoke void @_ZSt20__throw_system_errori(i32 noundef %7) #30
          to label %.noexc unwind label %72

.noexc:                                           ; preds = %8
  unreachable

_ZNSt10lock_guardISt5mutexEC2ERS0_.exit:          ; preds = %4
  %9 = load ptr, ptr %5, align 8, !tbaa !117
  %10 = getelementptr inbounds nuw i8, ptr %9, i64 40
  %11 = load ptr, ptr %10, align 8, !tbaa !119
  %12 = load ptr, ptr %11, align 8, !tbaa !105
  %13 = getelementptr inbounds nuw i8, ptr %12, i64 24
  %14 = load ptr, ptr %13, align 8
  %15 = invoke noundef i64 %14(ptr noundef nonnull align 8 dereferenceable(40) %11)
          to label %16 unwind label %72

16:                                               ; preds = %_ZNSt10lock_guardISt5mutexEC2ERS0_.exit
  %17 = load ptr, ptr %2, align 8, !tbaa !112
  %18 = getelementptr inbounds nuw i8, ptr %17, i64 296
  %19 = load i64, ptr %18, align 8, !tbaa !67
  %.not6 = icmp eq i64 %19, 0
  br i1 %.not6, label %45, label %20

20:                                               ; preds = %16
  %21 = load ptr, ptr %5, align 8, !tbaa !117
  %22 = getelementptr inbounds nuw i8, ptr %21, i64 40
  %23 = load ptr, ptr %22, align 8, !tbaa !119
  %24 = load ptr, ptr %23, align 8, !tbaa !105
  %25 = getelementptr inbounds nuw i8, ptr %24, i64 32
  %26 = load ptr, ptr %25, align 8
  invoke void %26(ptr noundef nonnull align 8 dereferenceable(40) %23, i64 noundef %19)
          to label %27 unwind label %41

27:                                               ; preds = %20
  %28 = load ptr, ptr %2, align 8, !tbaa !112
  %29 = getelementptr inbounds nuw i8, ptr %28, i64 184
  %30 = load ptr, ptr %5, align 8, !tbaa !117
  %31 = getelementptr inbounds nuw i8, ptr %30, i64 40
  %32 = load ptr, ptr %31, align 8, !tbaa !119
  %33 = invoke noundef i64 @_ZNK7Imf_3_411TileOffsets7writeToERNS_7OStreamE(ptr noundef nonnull align 8 dereferenceable(40) %29, ptr noundef nonnull align 8 dereferenceable(40) %32)
          to label %34 unwind label %41

34:                                               ; preds = %27
  %35 = load ptr, ptr %5, align 8, !tbaa !117
  %36 = getelementptr inbounds nuw i8, ptr %35, i64 40
  %37 = load ptr, ptr %36, align 8, !tbaa !119
  %38 = load ptr, ptr %37, align 8, !tbaa !105
  %39 = getelementptr inbounds nuw i8, ptr %38, i64 32
  %40 = load ptr, ptr %39, align 8
  invoke void %40(ptr noundef nonnull align 8 dereferenceable(40) %37, i64 noundef %15)
          to label %45 unwind label %41

41:                                               ; preds = %34, %27, %20
  %42 = landingpad { ptr, i32 }
          catch ptr null
  %43 = extractvalue { ptr, i32 } %42, 0
  %44 = tail call ptr @__cxa_begin_catch(ptr %43) #25
  invoke void @__cxa_end_catch()
          to label %45 unwind label %72

45:                                               ; preds = %34, %41, %16
  %46 = tail call noundef i32 @pthread_mutex_unlock(ptr noundef nonnull align 8 dereferenceable(40) %6) #25
  %47 = getelementptr inbounds nuw i8, ptr %0, i64 24
  %48 = load i8, ptr %47, align 8, !tbaa !118, !range !159, !noundef !160
  %49 = trunc nuw i8 %48 to i1
  br i1 %49, label %50, label %60

50:                                               ; preds = %45
  %51 = load ptr, ptr %5, align 8, !tbaa !117
  %.not7 = icmp eq ptr %51, null
  br i1 %.not7, label %60, label %52

52:                                               ; preds = %50
  %53 = getelementptr inbounds nuw i8, ptr %51, i64 40
  %54 = load ptr, ptr %53, align 8, !tbaa !119
  %55 = icmp eq ptr %54, null
  br i1 %55, label %60, label %56

56:                                               ; preds = %52
  %57 = load ptr, ptr %54, align 8, !tbaa !105
  %58 = getelementptr inbounds nuw i8, ptr %57, i64 8
  %59 = load ptr, ptr %58, align 8
  tail call void %59(ptr noundef nonnull align 8 dereferenceable(40) %54) #25
  br label %60

60:                                               ; preds = %52, %56, %50, %45
  %61 = load ptr, ptr %2, align 8, !tbaa !112
  %62 = getelementptr inbounds nuw i8, ptr %61, i64 368
  %63 = load i32, ptr %62, align 8, !tbaa !68
  %64 = icmp eq i32 %63, -1
  br i1 %64, label %65, label %.thread

65:                                               ; preds = %60
  %66 = load ptr, ptr %5, align 8, !tbaa !117
  %67 = icmp eq ptr %66, null
  br i1 %67, label %.thread, label %68

68:                                               ; preds = %65
  tail call void @_ZdlPvm(ptr noundef nonnull %66, i64 noundef 56) #27
  %.pr.pre = load ptr, ptr %2, align 8, !tbaa !112
  %69 = icmp eq ptr %.pr.pre, null
  br i1 %69, label %71, label %.thread

.thread:                                          ; preds = %65, %60, %68
  %70 = phi ptr [ %.pr.pre, %68 ], [ %61, %60 ], [ %61, %65 ]
  tail call void @_ZN7Imf_3_415TiledOutputFile4DataD2Ev(ptr noundef nonnull align 8 dereferenceable(372) %70) #25
  tail call void @_ZdlPvm(ptr noundef nonnull %70, i64 noundef 376) #27
  br label %71

71:                                               ; preds = %68, %.thread, %1
  tail call void @_ZN7Imf_3_417GenericOutputFileD2Ev(ptr noundef nonnull align 8 dereferenceable(8) %0) #25
  ret void

72:                                               ; preds = %8, %41, %_ZNSt10lock_guardISt5mutexEC2ERS0_.exit
  %73 = landingpad { ptr, i32 }
          catch ptr null
  %74 = extractvalue { ptr, i32 } %73, 0
  tail call void @__clang_call_terminate(ptr %74) #28
  unreachable
}